target datalayout = "e-m:e-p270:32:32-p271:32:32-p272:64:64-i64:64-i128:128-f80:128-n8:16:32:64-S128"
target triple = "x86_64-pc-linux-gnu"

; Function Attrs: nounwind uwtable
define internal i64 @ec_field_size(ptr noundef %0) #0 {
  %2 = alloca i64, align 8
  %3 = alloca ptr, align 8
  %4 = alloca ptr, align 8
  %5 = alloca i32, align 4
  store ptr %0, ptr %3, align 8, !tbaa !30
  call void @llvm.lifetime.start.p0(i64 8, ptr %4) #4
  %6 = load ptr, ptr %3, align 8, !tbaa !30
  %7 = call ptr @EC_GROUP_get0_field(ptr noundef %6)
  store ptr %7, ptr %4, align 8, !tbaa !32
  %8 = load ptr, ptr %4, align 8, !tbaa !32
  %9 = icmp eq ptr %8, null
  br i1 %9, label %10, label %11

10:                                               ; preds = %1
  store i64 0, ptr %2, align 8
  store i32 1, ptr %5, align 4
  br label %17

11:                                               ; preds = %1
  %12 = load ptr, ptr %4, align 8, !tbaa !32
  %13 = call i32 @BN_num_bits(ptr noundef %12)
  %14 = add nsw i32 %13, 7
  %15 = sdiv i32 %14, 8
  %16 = sext i32 %15 to i64
  store i64 %16, ptr %2, align 8
  store i32 1, ptr %5, align 4
  br label %17

17:                                               ; preds = %11, %10
  call void @llvm.lifetime.end.p0(i64 8, ptr %4) #4
  %18 = load i64, ptr %2, align 8
  ret i64 %18
}

; Function Attrs: nounwind uwtable
define i32 @ossl_sm2_ciphertext_size(ptr noundef %0, ptr noundef %1, i64 noundef %2, ptr noundef %3) #0 {
  %5 = alloca i32, align 4
  %6 = alloca ptr, align 8
  %7 = alloca ptr, align 8
  %8 = alloca i64, align 8
  %9 = alloca ptr, align 8
  %10 = alloca i64, align 8
  %11 = alloca i32, align 4
  %12 = alloca i64, align 8
  %13 = alloca i32, align 4
  store ptr %0, ptr %6, align 8, !tbaa !25
  store ptr %1, ptr %7, align 8, !tbaa !27
  store i64 %2, ptr %8, align 8, !tbaa !10
  store ptr %3, ptr %9, align 8, !tbaa !16
  call void @llvm.lifetime.start.p0(i64 8, ptr %10) #4
  %14 = load ptr, ptr %6, align 8, !tbaa !25
  %15 = call ptr @EC_KEY_get0_group(ptr noundef %14)
  %16 = call i64 @ec_field_size(ptr noundef %15)
  store i64 %16, ptr %10, align 8, !tbaa !10
  call void @llvm.lifetime.start.p0(i64 4, ptr %11) #4
  %17 = load ptr, ptr %7, align 8, !tbaa !27
  %18 = call i32 @EVP_MD_get_size(ptr noundef %17)
  store i32 %18, ptr %11, align 4, !tbaa !29
  call void @llvm.lifetime.start.p0(i64 8, ptr %12) #4
  %19 = load i64, ptr %10, align 8, !tbaa !10
  %20 = icmp eq i64 %19, 0
  br i1 %20, label %24, label %21

21:                                               ; preds = %4
  %22 = load i32, ptr %11, align 4, !tbaa !29
  %23 = icmp sle i32 %22, 0
  br i1 %23, label %24, label %25

24:                                               ; preds = %21, %4
  store i32 0, ptr %5, align 4
  store i32 1, ptr %13, align 4
  br label %44

25:                                               ; preds = %21
  %26 = load i64, ptr %10, align 8, !tbaa !10
  %27 = add i64 %26, 1
  %28 = trunc i64 %27 to i32
  %29 = call i32 @ASN1_object_size(i32 noundef 0, i32 noundef %28, i32 noundef 2)
  %30 = mul nsw i32 2, %29
  %31 = load i32, ptr %11, align 4, !tbaa !29
  %32 = call i32 @ASN1_object_size(i32 noundef 0, i32 noundef %31, i32 noundef 4)
  %33 = add nsw i32 %30, %32
  %34 = load i64, ptr %8, align 8, !tbaa !10
  %35 = trunc i64 %34 to i32
  %36 = call i32 @ASN1_object_size(i32 noundef 0, i32 noundef %35, i32 noundef 4)
  %37 = add nsw i32 %33, %36
  %38 = sext i32 %37 to i64
  store i64 %38, ptr %12, align 8, !tbaa !10
  %39 = load i64, ptr %12, align 8, !tbaa !10
  %40 = trunc i64 %39 to i32
  %41 = call i32 @ASN1_object_size(i32 noundef 1, i32 noundef %40, i32 noundef 16)
  %42 = sext i32 %41 to i64
  %43 = load ptr, ptr %9, align 8, !tbaa !16
  store i64 %42, ptr %43, align 8, !tbaa !10
  store i32 1, ptr %5, align 4
  store i32 1, ptr %13, align 4
  br label %44

44:                                               ; preds = %25, %24
  call void @llvm.lifetime.end.p0(i64 8, ptr %12) #4
  call void @llvm.lifetime.end.p0(i64 4, ptr %11) #4
  call void @llvm.lifetime.end.p0(i64 8, ptr %10) #4
  %45 = load i32, ptr %5, align 4
  ret i32 %45
}