; Function Attrs: nounwind uwtable
define range(i32 0, 2) i32 @ossl_sm2_ciphertext_size(ptr noundef %0, ptr noundef %1, i64 noundef %2, ptr noundef writeonly captures(none) %3) local_unnamed_addr #1 {
  %5 = tail call ptr @EC_KEY_get0_group(ptr noundef %0) #5
  %6 = tail call ptr @EC_GROUP_get0_field(ptr noundef %5) #5
  %7 = icmp eq ptr %6, null
  br i1 %7, label %ec_field_size.exit, label %8

8:                                                ; preds = %4
  %9 = tail call i32 @BN_num_bits(ptr noundef nonnull %6) #5
  %10 = add nsw i32 %9, 7
  %11 = sdiv i32 %10, 8
  %12 = sext i32 %11 to i64
  br label %ec_field_size.exit

ec_field_size.exit:                               ; preds = %4, %8
  %.0.i = phi i64 [ %12, %8 ], [ 0, %4 ]
  %13 = tail call i32 @EVP_MD_get_size(ptr noundef %1) #5
  %14 = icmp eq i64 %.0.i, 0
  %15 = icmp slt i32 %13, 1
  %or.cond = select i1 %14, i1 true, i1 %15
  br i1 %or.cond, label %28, label %16

16:                                               ; preds = %ec_field_size.exit
  %17 = trunc nsw i64 %.0.i to i32
  %18 = add nsw i32 %17, 1
  %19 = tail call i32 @ASN1_object_size(i32 noundef 0, i32 noundef %18, i32 noundef 2) #5
  %20 = shl nsw i32 %19, 1
  %21 = tail call i32 @ASN1_object_size(i32 noundef 0, i32 noundef %13, i32 noundef 4) #5
  %22 = add nsw i32 %20, %21
  %23 = trunc i64 %2 to i32
  %24 = tail call i32 @ASN1_object_size(i32 noundef 0, i32 noundef %23, i32 noundef 4) #5
  %25 = add nsw i32 %22, %24
  %26 = tail call i32 @ASN1_object_size(i32 noundef 1, i32 noundef %25, i32 noundef 16) #5
  %27 = sext i32 %26 to i64
  store i64 %27, ptr %3, align 8, !tbaa !16
  br label %28

28:                                               ; preds = %ec_field_size.exit, %16
  %.0 = phi i32 [ 1, %16 ], [ 0, %ec_field_size.exit ]
  ret i32 %.0
}